; Function Attrs: nounwind uwtable
define dso_local range(i32 -1, 1) i32 @acct_storage_g_init() local_unnamed_addr #0 {
  %1 = tail call i32 @pthread_rwlock_wrlock(ptr noundef nonnull @plugin_context_lock) #8
  %.not = icmp eq i32 %1, 0
  br i1 %.not, label %4, label %2

2:                                                ; preds = %0
  %3 = tail call ptr @__errno_location() #9
  store i32 %1, ptr %3, align 4
  tail call void (ptr, ...) @fatal_abort(ptr noundef nonnull @.str.1, ptr noundef nonnull @__func__.acct_storage_g_init) #10
  unreachable

4:                                                ; preds = %0
  %5 = load i32, ptr @plugin_inited, align 4
  %.not11 = icmp eq i32 %5, 0
  br i1 %.not11, label %6, label %21

6:                                                ; preds = %4
  %7 = load ptr, ptr getelementptr inbounds nuw (i8, ptr @slurm_conf, i64 72), align 8
  %.not12 = icmp eq ptr %7, null
  br i1 %.not12, label %8, label %9

8:                                                ; preds = %6
  store i32 1, ptr @plugin_inited, align 4
  br label %21

9:                                                ; preds = %6
  %10 = tail call ptr @plugin_context_create(ptr noundef nonnull @.str, ptr noundef nonnull %7, ptr noundef nonnull @ops, ptr noundef nonnull @syms, i64 noundef 640) #8
  store ptr %10, ptr @plugin_context, align 8
  %.not13 = icmp eq ptr %10, null
  br i1 %.not13, label %11, label %14

11:                                               ; preds = %9
  %12 = load ptr, ptr getelementptr inbounds nuw (i8, ptr @slurm_conf, i64 72), align 8
  %13 = tail call i32 (ptr, ...) @error(ptr noundef nonnull @.str.2, ptr noundef nonnull @.str, ptr noundef %12) #8
  store i32 0, ptr @plugin_inited, align 4
  br label %21

14:                                               ; preds = %9
  store i32 2, ptr @plugin_inited, align 4
  %15 = load ptr, ptr getelementptr inbounds nuw (i8, ptr @slurm_conf, i64 48), align 8
  %16 = tail call ptr @xstrcasestr(ptr noundef %15, ptr noundef nonnull @.str.3) #8
  %.not14 = icmp eq ptr %16, null
  br i1 %.not14, label %21, label %17

17:                                               ; preds = %14
  %18 = getelementptr inbounds nuw i8, ptr %16, i64 17
  %19 = tail call i64 @strtol(ptr noundef nonnull captures(none) %18, ptr noundef null, i32 noundef 10) #8
  %20 = trunc i64 %19 to i32
  store i32 %20, ptr @max_step_records, align 4
  br label %21

21:                                               ; preds = %8, %11, %4, %17, %14
  %.0 = phi i32 [ 0, %4 ], [ 0, %17 ], [ 0, %14 ], [ -1, %11 ], [ 0, %8 ]
  %22 = tail call i32 @pthread_rwlock_unlock(ptr noundef nonnull @plugin_context_lock) #8
  %.not15 = icmp eq i32 %22, 0
  br i1 %.not15, label %25, label %23

23:                                               ; preds = %21
  %24 = tail call ptr @__errno_location() #9
  store i32 %22, ptr %24, align 4
  tail call void (ptr, ...) @fatal_abort(ptr noundef nonnull @.str.4, ptr noundef nonnull @__func__.acct_storage_g_init) #10
  unreachable

25:                                               ; preds = %21
  ret i32 %.0
}